(lp1
(dp2
S'template_key'
p3
S'6135454b5869aedf0804ddd7da05e3e1a33ceb83'
p4
sS'title'
p5
S'Default Red'
p6
sa(dp7
g3
S'19c145dad3173ae5e47ea2ecf06fdc141ee21762'
p8
sg5
S'Ink'
p9
sa(dp10
g3
S'5a86b8663550d9bfeb00acfb065ece894aeb384f'
p11
sg5
S'Simple'
p12
sa(dp13
g3
S'bfb3133a51bcbe47c54d87b114537c5aa8675b87'
p14
sg5
S'Yukina'
p15
sa.